target datalayout = "e-m:e-p270:32:32-p271:32:32-p272:64:64-i64:64-i128:128-f80:128-n8:16:32:64-S128"
target triple = "x86_64-pc-linux-gnu"

%struct.EC_PKEY_CTX = type { ptr, ptr, ptr, i8, i8, ptr, ptr, i64, i64 }
%struct.evp_pkey_ctx_st = type { i32, ptr, ptr, ptr, ptr, %union.anon, %struct.anon.4, ptr, ptr, ptr, i32, i32, ptr, ptr, ptr, ptr, ptr, i8, ptr }
%union.anon = type { %struct.anon.0 }
%struct.anon.0 = type { ptr, ptr }
%struct.anon.4 = type { ptr, ptr, i64, i8 }

@.str = private unnamed_addr constant [32 x i8] c"../openssl/crypto/ec/ec_pmeth.c\00", align 1

; Function Attrs: nounwind uwtable
define internal i32 @pkey_ec_init(ptr noundef %0) #0 {
  %2 = alloca i32, align 4
  %3 = alloca ptr, align 8
  %4 = alloca ptr, align 8
  %5 = alloca i32, align 4
  store ptr %0, ptr %3, align 8, !tbaa !3
  call void @llvm.lifetime.start.p0(i64 8, ptr %4) #7
  %6 = call noalias ptr @CRYPTO_zalloc(i64 noundef 64, ptr noundef @.str, i32 noundef 51)
  store ptr %6, ptr %4, align 8, !tbaa !8
  %7 = icmp eq ptr %6, null
  br i1 %7, label %8, label %9

8:                                                ; preds = %1
  store i32 0, ptr %2, align 4
  store i32 1, ptr %5, align 4
  br label %17

9:                                                ; preds = %1
  %10 = load ptr, ptr %4, align 8, !tbaa !8
  %11 = getelementptr inbounds nuw %struct.EC_PKEY_CTX, ptr %10, i32 0, i32 3
  store i8 -1, ptr %11, align 8, !tbaa !9
  %12 = load ptr, ptr %4, align 8, !tbaa !8
  %13 = getelementptr inbounds nuw %struct.EC_PKEY_CTX, ptr %12, i32 0, i32 4
  store i8 1, ptr %13, align 1, !tbaa !16
  %14 = load ptr, ptr %4, align 8, !tbaa !8
  %15 = load ptr, ptr %3, align 8, !tbaa !3
  %16 = getelementptr inbounds nuw %struct.evp_pkey_ctx_st, ptr %15, i32 0, i32 16
  store ptr %14, ptr %16, align 8, !tbaa !17
  store i32 1, ptr %2, align 4
  store i32 1, ptr %5, align 4
  br label %17

17:                                               ; preds = %9, %8
  call void @llvm.lifetime.end.p0(i64 8, ptr %4) #7
  %18 = load i32, ptr %2, align 4
  ret i32 %18
}

; Function Attrs: nounwind uwtable
define internal i32 @pkey_ec_copy(ptr noundef %0, ptr noundef %1) #0 {
  %3 = alloca i32, align 4
  %4 = alloca ptr, align 8
  %5 = alloca ptr, align 8
  %6 = alloca ptr, align 8
  %7 = alloca ptr, align 8
  %8 = alloca i32, align 4
  store ptr %0, ptr %4, align 8, !tbaa !3
  store ptr %1, ptr %5, align 8, !tbaa !3
  call void @llvm.lifetime.start.p0(i64 8, ptr %6) #7
  call void @llvm.lifetime.start.p0(i64 8, ptr %7) #7
  %9 = load ptr, ptr %4, align 8, !tbaa !3
  %10 = call i32 @pkey_ec_init(ptr noundef %9)
  %11 = icmp ne i32 %10, 0
  br i1 %11, label %13, label %12

12:                                               ; preds = %2
  store i32 0, ptr %3, align 4
  store i32 1, ptr %8, align 4
  br label %105

13:                                               ; preds = %2
  %14 = load ptr, ptr %5, align 8, !tbaa !3
  %15 = getelementptr inbounds nuw %struct.evp_pkey_ctx_st, ptr %14, i32 0, i32 16
  %16 = load ptr, ptr %15, align 8, !tbaa !17
  store ptr %16, ptr %7, align 8, !tbaa !8
  %17 = load ptr, ptr %4, align 8, !tbaa !3
  %18 = getelementptr inbounds nuw %struct.evp_pkey_ctx_st, ptr %17, i32 0, i32 16
  %19 = load ptr, ptr %18, align 8, !tbaa !17
  store ptr %19, ptr %6, align 8, !tbaa !8
  %20 = load ptr, ptr %7, align 8, !tbaa !8
  %21 = getelementptr inbounds nuw %struct.EC_PKEY_CTX, ptr %20, i32 0, i32 0
  %22 = load ptr, ptr %21, align 8, !tbaa !28
  %23 = icmp ne ptr %22, null
  br i1 %23, label %24, label %37

24:                                               ; preds = %13
  %25 = load ptr, ptr %7, align 8, !tbaa !8
  %26 = getelementptr inbounds nuw %struct.EC_PKEY_CTX, ptr %25, i32 0, i32 0
  %27 = load ptr, ptr %26, align 8, !tbaa !28
  %28 = call ptr @EC_GROUP_dup(ptr noundef %27)
  %29 = load ptr, ptr %6, align 8, !tbaa !8
  %30 = getelementptr inbounds nuw %struct.EC_PKEY_CTX, ptr %29, i32 0, i32 0
  store ptr %28, ptr %30, align 8, !tbaa !28
  %31 = load ptr, ptr %6, align 8, !tbaa !8
  %32 = getelementptr inbounds nuw %struct.EC_PKEY_CTX, ptr %31, i32 0, i32 0
  %33 = load ptr, ptr %32, align 8, !tbaa !28
  %34 = icmp ne ptr %33, null
  br i1 %34, label %36, label %35

35:                                               ; preds = %24
  store i32 0, ptr %3, align 4
  store i32 1, ptr %8, align 4
  br label %105

36:                                               ; preds = %24
  br label %37

37:                                               ; preds = %36, %13
  %38 = load ptr, ptr %7, align 8, !tbaa !8
  %39 = getelementptr inbounds nuw %struct.EC_PKEY_CTX, ptr %38, i32 0, i32 1
  %40 = load ptr, ptr %39, align 8, !tbaa !29
  %41 = load ptr, ptr %6, align 8, !tbaa !8
  %42 = getelementptr inbounds nuw %struct.EC_PKEY_CTX, ptr %41, i32 0, i32 1
  store ptr %40, ptr %42, align 8, !tbaa !29
  %43 = load ptr, ptr %7, align 8, !tbaa !8
  %44 = getelementptr inbounds nuw %struct.EC_PKEY_CTX, ptr %43, i32 0, i32 2
  %45 = load ptr, ptr %44, align 8, !tbaa !30
  %46 = icmp ne ptr %45, null
  br i1 %46, label %47, label %60

47:                                               ; preds = %37
  %48 = load ptr, ptr %7, align 8, !tbaa !8
  %49 = getelementptr inbounds nuw %struct.EC_PKEY_CTX, ptr %48, i32 0, i32 2
  %50 = load ptr, ptr %49, align 8, !tbaa !30
  %51 = call ptr @EC_KEY_dup(ptr noundef %50)
  %52 = load ptr, ptr %6, align 8, !tbaa !8
  %53 = getelementptr inbounds nuw %struct.EC_PKEY_CTX, ptr %52, i32 0, i32 2
  store ptr %51, ptr %53, align 8, !tbaa !30
  %54 = load ptr, ptr %6, align 8, !tbaa !8
  %55 = getelementptr inbounds nuw %struct.EC_PKEY_CTX, ptr %54, i32 0, i32 2
  %56 = load ptr, ptr %55, align 8, !tbaa !30
  %57 = icmp ne ptr %56, null
  br i1 %57, label %59, label %58

58:                                               ; preds = %47
  store i32 0, ptr %3, align 4
  store i32 1, ptr %8, align 4
  br label %105

59:                                               ; preds = %47
  br label %60

60:                                               ; preds = %59, %37
  %61 = load ptr, ptr %7, align 8, !tbaa !8
  %62 = getelementptr inbounds nuw %struct.EC_PKEY_CTX, ptr %61, i32 0, i32 4
  %63 = load i8, ptr %62, align 1, !tbaa !16
  %64 = load ptr, ptr %6, align 8, !tbaa !8
  %65 = getelementptr inbounds nuw %struct.EC_PKEY_CTX, ptr %64, i32 0, i32 4
  store i8 %63, ptr %65, align 1, !tbaa !16
  %66 = load ptr, ptr %7, align 8, !tbaa !8
  %67 = getelementptr inbounds nuw %struct.EC_PKEY_CTX, ptr %66, i32 0, i32 5
  %68 = load ptr, ptr %67, align 8, !tbaa !31
  %69 = load ptr, ptr %6, align 8, !tbaa !8
  %70 = getelementptr inbounds nuw %struct.EC_PKEY_CTX, ptr %69, i32 0, i32 5
  store ptr %68, ptr %70, align 8, !tbaa !31
  %71 = load ptr, ptr %7, align 8, !tbaa !8
  %72 = getelementptr inbounds nuw %struct.EC_PKEY_CTX, ptr %71, i32 0, i32 8
  %73 = load i64, ptr %72, align 8, !tbaa !32
  %74 = load ptr, ptr %6, align 8, !tbaa !8
  %75 = getelementptr inbounds nuw %struct.EC_PKEY_CTX, ptr %74, i32 0, i32 8
  store i64 %73, ptr %75, align 8, !tbaa !32
  %76 = load ptr, ptr %7, align 8, !tbaa !8
  %77 = getelementptr inbounds nuw %struct.EC_PKEY_CTX, ptr %76, i32 0, i32 6
  %78 = load ptr, ptr %77, align 8, !tbaa !33
  %79 = icmp ne ptr %78, null
  br i1 %79, label %80, label %96

80:                                               ; preds = %60
  %81 = load ptr, ptr %7, align 8, !tbaa !8
  %82 = getelementptr inbounds nuw %struct.EC_PKEY_CTX, ptr %81, i32 0, i32 6
  %83 = load ptr, ptr %82, align 8, !tbaa !33
  %84 = load ptr, ptr %7, align 8, !tbaa !8
  %85 = getelementptr inbounds nuw %struct.EC_PKEY_CTX, ptr %84, i32 0, i32 7
  %86 = load i64, ptr %85, align 8, !tbaa !34
  %87 = call noalias ptr @CRYPTO_memdup(ptr noundef %83, i64 noundef %86, ptr noundef @.str, i32 noundef 83)
  %88 = load ptr, ptr %6, align 8, !tbaa !8
  %89 = getelementptr inbounds nuw %struct.EC_PKEY_CTX, ptr %88, i32 0, i32 6
  store ptr %87, ptr %89, align 8, !tbaa !33
  %90 = load ptr, ptr %6, align 8, !tbaa !8
  %91 = getelementptr inbounds nuw %struct.EC_PKEY_CTX, ptr %90, i32 0, i32 6
  %92 = load ptr, ptr %91, align 8, !tbaa !33
  %93 = icmp ne ptr %92, null
  br i1 %93, label %95, label %94

94:                                               ; preds = %80
  store i32 0, ptr %3, align 4
  store i32 1, ptr %8, align 4
  br label %105

95:                                               ; preds = %80
  br label %99

96:                                               ; preds = %60
  %97 = load ptr, ptr %6, align 8, !tbaa !8
  %98 = getelementptr inbounds nuw %struct.EC_PKEY_CTX, ptr %97, i32 0, i32 6
  store ptr null, ptr %98, align 8, !tbaa !33
  br label %99

99:                                               ; preds = %96, %95
  %100 = load ptr, ptr %7, align 8, !tbaa !8
  %101 = getelementptr inbounds nuw %struct.EC_PKEY_CTX, ptr %100, i32 0, i32 7
  %102 = load i64, ptr %101, align 8, !tbaa !34
  %103 = load ptr, ptr %6, align 8, !tbaa !8
  %104 = getelementptr inbounds nuw %struct.EC_PKEY_CTX, ptr %103, i32 0, i32 7
  store i64 %102, ptr %104, align 8, !tbaa !34
  store i32 1, ptr %3, align 4
  store i32 1, ptr %8, align 4
  br label %105

105:                                              ; preds = %99, %94, %58, %35, %12
  call void @llvm.lifetime.end.p0(i64 8, ptr %7) #7
  call void @llvm.lifetime.end.p0(i64 8, ptr %6) #7
  %106 = load i32, ptr %3, align 4
  ret i32 %106
}