; Function Attrs: nounwind uwtable
define internal range(i32 0, 2) i32 @pkey_ec_copy(ptr noundef writeonly captures(none) %0, ptr noundef readonly captures(none) %1) #1 {
  %3 = tail call noalias ptr @CRYPTO_zalloc(i64 noundef 64, ptr noundef nonnull @.str, i32 noundef 51) #6
  %4 = icmp eq ptr %3, null
  br i1 %4, label %pkey_ec_init.exit.thread, label %5

5:                                                ; preds = %2
  %6 = getelementptr inbounds nuw i8, ptr %3, i64 24
  store i8 -1, ptr %6, align 8, !tbaa !3
  %7 = getelementptr inbounds nuw i8, ptr %3, i64 25
  store i8 1, ptr %7, align 1, !tbaa !13
  %8 = getelementptr inbounds nuw i8, ptr %0, i64 152
  store ptr %3, ptr %8, align 8, !tbaa !14
  %9 = getelementptr inbounds nuw i8, ptr %1, i64 152
  %10 = load ptr, ptr %9, align 8, !tbaa !14
  %11 = load ptr, ptr %10, align 8, !tbaa !25
  %.not30 = icmp eq ptr %11, null
  br i1 %.not30, label %14, label %12

12:                                               ; preds = %5
  %13 = tail call ptr @EC_GROUP_dup(ptr noundef nonnull %11) #6
  store ptr %13, ptr %3, align 8, !tbaa !25
  %.not31 = icmp eq ptr %13, null
  br i1 %.not31, label %pkey_ec_init.exit.thread, label %14

14:                                               ; preds = %12, %5
  %15 = getelementptr inbounds nuw i8, ptr %10, i64 8
  %16 = load ptr, ptr %15, align 8, !tbaa !26
  %17 = getelementptr inbounds nuw i8, ptr %3, i64 8
  store ptr %16, ptr %17, align 8, !tbaa !26
  %18 = getelementptr inbounds nuw i8, ptr %10, i64 16
  %19 = load ptr, ptr %18, align 8, !tbaa !27
  %.not32 = icmp eq ptr %19, null
  br i1 %.not32, label %23, label %20

20:                                               ; preds = %14
  %21 = tail call ptr @EC_KEY_dup(ptr noundef nonnull %19) #6
  %22 = getelementptr inbounds nuw i8, ptr %3, i64 16
  store ptr %21, ptr %22, align 8, !tbaa !27
  %.not33 = icmp eq ptr %21, null
  br i1 %.not33, label %pkey_ec_init.exit.thread, label %23

23:                                               ; preds = %20, %14
  %24 = getelementptr inbounds nuw i8, ptr %10, i64 25
  %25 = load i8, ptr %24, align 1, !tbaa !13
  store i8 %25, ptr %7, align 1, !tbaa !13
  %26 = getelementptr inbounds nuw i8, ptr %10, i64 32
  %27 = load ptr, ptr %26, align 8, !tbaa !28
  %28 = getelementptr inbounds nuw i8, ptr %3, i64 32
  store ptr %27, ptr %28, align 8, !tbaa !28
  %29 = getelementptr inbounds nuw i8, ptr %10, i64 56
  %30 = load i64, ptr %29, align 8, !tbaa !29
  %31 = getelementptr inbounds nuw i8, ptr %3, i64 56
  store i64 %30, ptr %31, align 8, !tbaa !29
  %32 = getelementptr inbounds nuw i8, ptr %10, i64 40
  %33 = load ptr, ptr %32, align 8, !tbaa !30
  %.not34 = icmp eq ptr %33, null
  br i1 %.not34, label %39, label %34

34:                                               ; preds = %23
  %35 = getelementptr inbounds nuw i8, ptr %10, i64 48
  %36 = load i64, ptr %35, align 8, !tbaa !31
  %37 = tail call noalias ptr @CRYPTO_memdup(ptr noundef nonnull %33, i64 noundef %36, ptr noundef nonnull @.str, i32 noundef 83) #6
  %38 = getelementptr inbounds nuw i8, ptr %3, i64 40
  store ptr %37, ptr %38, align 8, !tbaa !30
  %.not35 = icmp eq ptr %37, null
  br i1 %.not35, label %pkey_ec_init.exit.thread, label %41

39:                                               ; preds = %23
  %40 = getelementptr inbounds nuw i8, ptr %3, i64 40
  store ptr null, ptr %40, align 8, !tbaa !30
  br label %41

41:                                               ; preds = %34, %39
  %42 = getelementptr inbounds nuw i8, ptr %10, i64 48
  %43 = load i64, ptr %42, align 8, !tbaa !31
  %44 = getelementptr inbounds nuw i8, ptr %3, i64 48
  store i64 %43, ptr %44, align 8, !tbaa !31
  br label %pkey_ec_init.exit.thread

pkey_ec_init.exit.thread:                         ; preds = %2, %34, %20, %12, %41
  %.0 = phi i32 [ 1, %41 ], [ 0, %12 ], [ 0, %20 ], [ 0, %34 ], [ 0, %2 ]
  ret i32 %.0
}